; Function Attrs: mustprogress uwtable
define void @_ZN3zmq6pipe_t17process_delimiterEv(ptr noundef nonnull align 8 dereferenceable(328) %0) local_unnamed_addr #0 align 2 {
  %2 = getelementptr inbounds nuw i8, ptr %0, i64 152
  %3 = load i32, ptr %2, align 8, !tbaa !105
  %4 = and i32 %3, -3
  %spec.select.not = icmp eq i32 %4, 0
  br i1 %spec.select.not, label %10, label %5, !prof !47

5:                                                ; preds = %1
  %6 = load ptr, ptr @stderr, align 8, !tbaa !21
  %7 = tail call i32 (ptr, ptr, ...) @fprintf(ptr noundef %6, ptr noundef nonnull @.str.4, ptr noundef nonnull @.str.17, ptr noundef nonnull @.str.1, i32 noundef 477) #26
  %8 = load ptr, ptr @stderr, align 8, !tbaa !21
  %9 = tail call i32 @fflush(ptr noundef %8)
  tail call void @_ZN3zmq9zmq_abortEPKc(ptr noundef nonnull @.str.17)
  %.pr = load i32, ptr %2, align 8, !tbaa !105
  br label %10

10:                                               ; preds = %1, %5
  %11 = phi i32 [ %3, %1 ], [ %.pr, %5 ]
  %12 = icmp eq i32 %11, 0
  br i1 %12, label %17, label %13

13:                                               ; preds = %10
  tail call void @_ZNK3zmq6pipe_t8rollbackEv(ptr noundef nonnull align 8 dereferenceable(328) %0)
  %14 = getelementptr inbounds nuw i8, ptr %0, i64 80
  store ptr null, ptr %14, align 8, !tbaa !103
  %15 = getelementptr inbounds nuw i8, ptr %0, i64 136
  %16 = load ptr, ptr %15, align 8, !tbaa !29
  tail call void @_ZN3zmq8object_t18send_pipe_term_ackEPNS_6pipe_tE(ptr noundef nonnull align 8 dereferenceable(20) %0, ptr noundef %16)
  br label %17

17:                                               ; preds = %10, %13
  %storemerge = phi i32 [ 3, %13 ], [ 1, %10 ]
  store i32 %storemerge, ptr %2, align 8, !tbaa !105
  ret void
}